target datalayout = "e-m:e-p270:32:32-p271:32:32-p272:64:64-i64:64-i128:128-f80:128-n8:16:32:64-S128"
target triple = "x86_64-pc-linux-gnu"

%struct._zend_executor_globals = type { %struct._zval_struct, %struct._zval_struct, [32 x ptr], ptr, ptr, %struct._zend_array, %struct._zend_array, ptr, i32, i8, %struct._zval_struct, i32, ptr, ptr, ptr, ptr, ptr, ptr, i64, ptr, ptr, i32, ptr, i32, i64, i32, i32, i32, i8, i8, %struct.zend_atomic_bool_s, %struct.zend_atomic_bool_s, ptr, i64, ptr, ptr, %struct._zend_array, %struct._zend_array, i32, i8, %struct._zval_struct, %struct._zval_struct, %struct._zend_stack, %struct._zend_stack, %struct._zend_stack, ptr, i32, i32, i64, ptr, ptr, ptr, %struct._zend_objects_store, %struct._zend_lazy_objects_store, ptr, ptr, ptr, [3 x %struct._zend_op], ptr, i8, i8, i64, i32, i32, ptr, [16 x %struct._HashTableIterator], ptr, %union._zend_function, %struct._zend_op, %struct._zend_array, i64, %struct.zend_get_gc_buffer, ptr, ptr, ptr, i64, i8, i32, ptr, ptr, i64, %struct._zend_call_stack, i64, i64, %struct._zend_strtod_state, [6 x ptr] }
%struct.zend_atomic_bool_s = type { i8 }
%struct._zval_struct = type { %union._zend_value, %union.anon.3, %union.anon.6 }
%union._zend_value = type { i64 }
%union.anon.3 = type { i32 }
%union.anon.6 = type { i32 }
%struct._zend_stack = type { i32, i32, i32, ptr }
%struct._zend_objects_store = type { ptr, i32, i32, i32 }
%struct._zend_lazy_objects_store = type { %struct._zend_array }
%struct._HashTableIterator = type { ptr, i32, i32 }
%union._zend_function = type { %struct._zend_op_array }
%struct._zend_op_array = type { i8, [3 x i8], i32, ptr, ptr, ptr, i32, i32, ptr, ptr, ptr, ptr, i32, ptr, i32, i32, i32, ptr, ptr, ptr, ptr, ptr, i32, i32, ptr, ptr, ptr, i32, i32, i32, i32, ptr, ptr, [6 x ptr] }
%struct._zend_op = type { ptr, %union._znode_op, %union._znode_op, %union._znode_op, i32, i32, i8, i8, i8, i8 }
%union._znode_op = type { i32 }
%struct._zend_array = type { %struct._zend_refcounted_h, %union.anon.8, i32, %union.anon.10, i32, i32, i32, i32, i64, ptr }
%struct._zend_refcounted_h = type { i32, %union.anon.1 }
%union.anon.1 = type { i32 }
%union.anon.8 = type { i32 }
%union.anon.10 = type { ptr }
%struct.zend_get_gc_buffer = type { ptr, ptr, ptr }
%struct._zend_call_stack = type { ptr, i64 }
%struct._zend_strtod_state = type { [8 x ptr], ptr, ptr }
%struct._pdo_stmt_t = type { ptr, ptr, [6 x i8], i16, ptr, ptr, ptr, ptr, i32, i32, %union.anon, ptr, ptr, ptr, i64, ptr, ptr, ptr, %struct._zend_object }
%union.anon = type { %struct.anon.0 }
%struct.anon.0 = type { %struct._zend_fcall_info_cache }
%struct._zend_fcall_info_cache = type { ptr, ptr, ptr, ptr, ptr }
%struct._zend_object = type { %struct._zend_refcounted_h, i32, i32, ptr, ptr, ptr, [1 x %struct._zval_struct] }
%struct._pdo_dbh_t = type { ptr, ptr, ptr, ptr, i32, ptr, i64, [6 x i8], i32, i32, i32, ptr, i64, i32, [2 x ptr], ptr, ptr, %struct._zval_struct, ptr, ptr, i32 }
%struct._zend_string = type { %struct._zend_refcounted_h, i64, i64, [1 x i8] }
%struct._zend_execute_data = type { ptr, ptr, ptr, ptr, %struct._zval_struct, ptr, ptr, ptr, ptr }
%struct._zend_class_entry = type { i8, ptr, %union.anon.7, i32, i32, i32, i32, ptr, ptr, ptr, %struct._zend_array, %struct._zend_array, %struct._zend_array, ptr, ptr, ptr, ptr, ptr, ptr, ptr, ptr, ptr, ptr, ptr, ptr, ptr, ptr, ptr, ptr, ptr, ptr, ptr, %union.anon.11, ptr, ptr, ptr, ptr, i32, i32, i32, i32, %union.anon.12, ptr, ptr, ptr, ptr, i32, ptr, ptr, %union.anon.13 }
%union.anon.7 = type { ptr }
%union.anon.11 = type { ptr }
%union.anon.12 = type { ptr }
%union.anon.13 = type { %struct.anon.14 }
%struct.anon.14 = type { ptr, i32, i32 }
%struct.pdo_dbh_methods = type { ptr, ptr, ptr, ptr, ptr, ptr, ptr, ptr, ptr, ptr, ptr, ptr, ptr, ptr, ptr, ptr, ptr }

@.str = private unnamed_addr constant [27 x i8] c"%s object is uninitialized\00", align 1
@executor_globals = external global %struct._zend_executor_globals, align 8
@.str.1 = private unnamed_addr constant [6 x i8] c"00000\00", align 1

; Function Attrs: alwaysinline nounwind uwtable
define internal i32 @zend_hash_num_elements(ptr noundef %0) #3 {
  %2 = alloca ptr, align 8
  store ptr %0, ptr %2, align 8, !tbaa !46
  %3 = load ptr, ptr %2, align 8, !tbaa !46
  %4 = getelementptr inbounds nuw %struct._zend_array, ptr %3, i32 0, i32 5
  %5 = load i32, ptr %4, align 4, !tbaa !131
  ret i32 %5
}

; Function Attrs: inlinehint nounwind uwtable
define internal ptr @php_pdo_stmt_fetch_object(ptr noundef %0) #7 {
  %2 = alloca ptr, align 8
  store ptr %0, ptr %2, align 8, !tbaa !108
  %3 = load ptr, ptr %2, align 8, !tbaa !108
  %4 = getelementptr inbounds i8, ptr %3, i64 -160
  ret ptr %4
}

; Function Attrs: nounwind uwtable
define hidden void @zim_PDOStatement_errorInfo(ptr noundef %0, ptr noundef %1) #0 {
  %3 = alloca ptr, align 8
  %4 = alloca ptr, align 8
  %5 = alloca i32, align 4
  %6 = alloca i32, align 4
  %7 = alloca i32, align 4
  %8 = alloca i32, align 4
  %9 = alloca ptr, align 8
  %10 = alloca ptr, align 8
  %11 = alloca ptr, align 8
  %12 = alloca i32, align 4
  store ptr %0, ptr %3, align 8, !tbaa !50
  store ptr %1, ptr %4, align 8, !tbaa !47
  call void @llvm.lifetime.start.p0(i64 4, ptr %5) #14
  call void @llvm.lifetime.start.p0(i64 4, ptr %6) #14
  store i32 0, ptr %6, align 4, !tbaa !26
  call void @llvm.lifetime.start.p0(i64 4, ptr %7) #14
  store i32 3, ptr %7, align 4, !tbaa !26
  br label %13

13:                                               ; preds = %2
  %14 = load ptr, ptr %3, align 8, !tbaa !50
  %15 = getelementptr inbounds nuw %struct._zend_execute_data, ptr %14, i32 0, i32 4
  %16 = getelementptr inbounds nuw %struct._zval_struct, ptr %15, i32 0, i32 2
  %17 = load i32, ptr %16, align 4, !tbaa !45
  %18 = icmp ne i32 %17, 0
  %19 = xor i1 %18, true
  %20 = xor i1 %19, true
  %21 = zext i1 %20 to i32
  %22 = sext i32 %21 to i64
  %23 = call i64 @llvm.expect.i64(i64 %22, i64 0)
  %24 = icmp ne i64 %23, 0
  br i1 %24, label %25, label %26

25:                                               ; preds = %13
  call void @zend_wrong_parameters_none_error()
  store i32 1, ptr %8, align 4
  br label %123

26:                                               ; preds = %13
  br label %27

27:                                               ; preds = %26
  br label %28

28:                                               ; preds = %27
  call void @llvm.lifetime.start.p0(i64 8, ptr %9) #14
  %29 = load ptr, ptr %3, align 8, !tbaa !50
  %30 = getelementptr inbounds nuw %struct._zend_execute_data, ptr %29, i32 0, i32 4
  %31 = getelementptr inbounds nuw %struct._zval_struct, ptr %30, i32 0, i32 0
  %32 = load ptr, ptr %31, align 8, !tbaa !45
  %33 = call ptr @php_pdo_stmt_fetch_object(ptr noundef %32)
  store ptr %33, ptr %9, align 8, !tbaa !4
  %34 = load ptr, ptr %9, align 8, !tbaa !4
  %35 = getelementptr inbounds nuw %struct._pdo_stmt_t, ptr %34, i32 0, i32 12
  %36 = load ptr, ptr %35, align 8, !tbaa !30
  %37 = icmp ne ptr %36, null
  br i1 %37, label %54, label %38

38:                                               ; preds = %28
  %39 = load ptr, ptr %3, align 8, !tbaa !50
  %40 = getelementptr inbounds nuw %struct._zend_execute_data, ptr %39, i32 0, i32 4
  %41 = getelementptr inbounds nuw %struct._zval_struct, ptr %40, i32 0, i32 0
  %42 = load ptr, ptr %41, align 8, !tbaa !45
  %43 = getelementptr inbounds nuw %struct._zend_object, ptr %42, i32 0, i32 3
  %44 = load ptr, ptr %43, align 8, !tbaa !56
  %45 = getelementptr inbounds nuw %struct._zend_class_entry, ptr %44, i32 0, i32 1
  %46 = load ptr, ptr %45, align 8, !tbaa !57
  %47 = getelementptr inbounds nuw %struct._zend_string, ptr %46, i32 0, i32 3
  %48 = getelementptr inbounds [1 x i8], ptr %47, i64 0, i64 0
  call void (ptr, ptr, ...) @zend_throw_error(ptr noundef null, ptr noundef @.str, ptr noundef %48)
  br label %49

49:                                               ; preds = %38
  %50 = load ptr, ptr getelementptr inbounds nuw (%struct._zend_executor_globals, ptr @executor_globals, i32 0, i32 54), align 8, !tbaa !69
  %51 = icmp ne ptr %50, null
  call void @llvm.assume(i1 %51)
  store i32 1, ptr %8, align 4
  br label %122

52:                                               ; No predecessors!
  br label %53

53:                                               ; preds = %52
  br label %54

54:                                               ; preds = %53, %28
  br label %55

55:                                               ; preds = %54
  call void @llvm.lifetime.start.p0(i64 8, ptr %10) #14
  %56 = call ptr @_zend_new_array_0()
  store ptr %56, ptr %10, align 8, !tbaa !46
  call void @llvm.lifetime.start.p0(i64 8, ptr %11) #14
  %57 = load ptr, ptr %4, align 8, !tbaa !47
  store ptr %57, ptr %11, align 8, !tbaa !47
  %58 = load ptr, ptr %10, align 8, !tbaa !46
  %59 = load ptr, ptr %11, align 8, !tbaa !47
  %60 = getelementptr inbounds nuw %struct._zval_struct, ptr %59, i32 0, i32 0
  store ptr %58, ptr %60, align 8, !tbaa !45
  %61 = load ptr, ptr %11, align 8, !tbaa !47
  %62 = getelementptr inbounds nuw %struct._zval_struct, ptr %61, i32 0, i32 1
  store i32 775, ptr %62, align 8, !tbaa !45
  call void @llvm.lifetime.end.p0(i64 8, ptr %11) #14
  call void @llvm.lifetime.end.p0(i64 8, ptr %10) #14
  br label %63

63:                                               ; preds = %55
  br label %64

64:                                               ; preds = %63
  %65 = load ptr, ptr %4, align 8, !tbaa !47
  %66 = load ptr, ptr %9, align 8, !tbaa !4
  %67 = getelementptr inbounds nuw %struct._pdo_stmt_t, ptr %66, i32 0, i32 2
  %68 = getelementptr inbounds [6 x i8], ptr %67, i64 0, i64 0
  %69 = call i32 @add_next_index_string(ptr noundef %65, ptr noundef %68)
  %70 = load ptr, ptr %9, align 8, !tbaa !4
  %71 = getelementptr inbounds nuw %struct._pdo_stmt_t, ptr %70, i32 0, i32 2
  %72 = getelementptr inbounds [6 x i8], ptr %71, i64 0, i64 0
  %73 = call i32 @strncmp(ptr noundef %72, ptr noundef @.str.1, i64 noundef 6) #16
  %74 = icmp ne i32 %73, 0
  br i1 %74, label %75, label %98

75:                                               ; preds = %64
  %76 = load ptr, ptr %9, align 8, !tbaa !4
  %77 = getelementptr inbounds nuw %struct._pdo_stmt_t, ptr %76, i32 0, i32 12
  %78 = load ptr, ptr %77, align 8, !tbaa !30
  %79 = getelementptr inbounds nuw %struct._pdo_dbh_t, ptr %78, i32 0, i32 0
  %80 = load ptr, ptr %79, align 8, !tbaa !150
  %81 = getelementptr inbounds nuw %struct.pdo_dbh_methods, ptr %80, i32 0, i32 9
  %82 = load ptr, ptr %81, align 8, !tbaa !151
  %83 = icmp ne ptr %82, null
  br i1 %83, label %84, label %97

84:                                               ; preds = %75
  %85 = load ptr, ptr %9, align 8, !tbaa !4
  %86 = getelementptr inbounds nuw %struct._pdo_stmt_t, ptr %85, i32 0, i32 12
  %87 = load ptr, ptr %86, align 8, !tbaa !30
  %88 = getelementptr inbounds nuw %struct._pdo_dbh_t, ptr %87, i32 0, i32 0
  %89 = load ptr, ptr %88, align 8, !tbaa !150
  %90 = getelementptr inbounds nuw %struct.pdo_dbh_methods, ptr %89, i32 0, i32 9
  %91 = load ptr, ptr %90, align 8, !tbaa !151
  %92 = load ptr, ptr %9, align 8, !tbaa !4
  %93 = getelementptr inbounds nuw %struct._pdo_stmt_t, ptr %92, i32 0, i32 12
  %94 = load ptr, ptr %93, align 8, !tbaa !30
  %95 = load ptr, ptr %9, align 8, !tbaa !4
  %96 = load ptr, ptr %4, align 8, !tbaa !47
  call void %91(ptr noundef %94, ptr noundef %95, ptr noundef %96)
  br label %97

97:                                               ; preds = %84, %75
  br label %98

98:                                               ; preds = %97, %64
  %99 = load ptr, ptr %4, align 8, !tbaa !47
  %100 = getelementptr inbounds nuw %struct._zval_struct, ptr %99, i32 0, i32 0
  %101 = load ptr, ptr %100, align 8, !tbaa !45
  %102 = call i32 @zend_hash_num_elements(ptr noundef %101)
  store i32 %102, ptr %5, align 4, !tbaa !26
  %103 = load i32, ptr %7, align 4, !tbaa !26
  %104 = load i32, ptr %5, align 4, !tbaa !26
  %105 = icmp sgt i32 %103, %104
  br i1 %105, label %106, label %121

106:                                              ; preds = %98
  call void @llvm.lifetime.start.p0(i64 4, ptr %12) #14
  %107 = load i32, ptr %7, align 4, !tbaa !26
  %108 = load i32, ptr %5, align 4, !tbaa !26
  %109 = sub nsw i32 %107, %108
  store i32 %109, ptr %6, align 4, !tbaa !26
  store i32 0, ptr %12, align 4, !tbaa !26
  br label %110

110:                                              ; preds = %117, %106
  %111 = load i32, ptr %12, align 4, !tbaa !26
  %112 = load i32, ptr %6, align 4, !tbaa !26
  %113 = icmp slt i32 %111, %112
  br i1 %113, label %114, label %120

114:                                              ; preds = %110
  %115 = load ptr, ptr %4, align 8, !tbaa !47
  %116 = call i32 @add_next_index_null(ptr noundef %115)
  br label %117

117:                                              ; preds = %114
  %118 = load i32, ptr %12, align 4, !tbaa !26
  %119 = add nsw i32 %118, 1
  store i32 %119, ptr %12, align 4, !tbaa !26
  br label %110

120:                                              ; preds = %110
  call void @llvm.lifetime.end.p0(i64 4, ptr %12) #14
  br label %121

121:                                              ; preds = %120, %98
  store i32 0, ptr %8, align 4
  br label %122

122:                                              ; preds = %121, %49
  call void @llvm.lifetime.end.p0(i64 8, ptr %9) #14
  br label %123

123:                                              ; preds = %122, %25
  call void @llvm.lifetime.end.p0(i64 4, ptr %7) #14
  call void @llvm.lifetime.end.p0(i64 4, ptr %6) #14
  call void @llvm.lifetime.end.p0(i64 4, ptr %5) #14
  %124 = load i32, ptr %8, align 4
  switch i32 %124, label %126 [
    i32 0, label %125
    i32 1, label %125
  ]

125:                                              ; preds = %123, %123
  ret void

126:                                              ; preds = %123
  unreachable
}