; Function Attrs: nounwind uwtable
define hidden void @zim_PDOStatement_errorInfo(ptr noundef readonly captures(none) %0, ptr noundef %1) #0 {
  %3 = getelementptr inbounds nuw i8, ptr %0, i64 44
  %4 = load i32, ptr %3, align 4, !tbaa !37
  %.not = icmp eq i32 %4, 0
  br i1 %.not, label %6, label %5, !prof !104

5:                                                ; preds = %2
  tail call void @zend_wrong_parameters_none_error() #17
  br label %.loopexit

6:                                                ; preds = %2
  %7 = getelementptr inbounds nuw i8, ptr %0, i64 32
  %8 = load ptr, ptr %7, align 8, !tbaa !37
  %9 = getelementptr inbounds i8, ptr %8, i64 -160
  %10 = getelementptr inbounds i8, ptr %8, i64 -48
  %11 = load ptr, ptr %10, align 8, !tbaa !27
  %.not26 = icmp eq ptr %11, null
  br i1 %.not26, label %12, label %20

12:                                               ; preds = %6
  %13 = getelementptr inbounds nuw i8, ptr %8, i64 16
  %14 = load ptr, ptr %13, align 8, !tbaa !45
  %15 = getelementptr inbounds nuw i8, ptr %14, i64 8
  %16 = load ptr, ptr %15, align 8, !tbaa !46
  %17 = getelementptr inbounds nuw i8, ptr %16, i64 24
  tail call void (ptr, ptr, ...) @zend_throw_error(ptr noundef null, ptr noundef nonnull @.str, ptr noundef nonnull %17) #17
  %18 = load ptr, ptr getelementptr inbounds nuw (i8, ptr @executor_globals, i64 960), align 8, !tbaa !59
  %19 = icmp ne ptr %18, null
  tail call void @llvm.assume(i1 %19)
  br label %.loopexit

20:                                               ; preds = %6
  %21 = tail call ptr @_zend_new_array_0() #17
  store ptr %21, ptr %1, align 8, !tbaa !37
  %22 = getelementptr inbounds nuw i8, ptr %1, i64 8
  store i32 775, ptr %22, align 8, !tbaa !37
  %23 = getelementptr inbounds i8, ptr %8, i64 -144
  %24 = tail call i32 @add_next_index_string(ptr noundef nonnull %1, ptr noundef nonnull %23) #17
  %25 = tail call i32 @strncmp(ptr noundef nonnull dereferenceable(1) %23, ptr noundef nonnull dereferenceable(6) @.str.1, i64 noundef 6) #18
  %.not27 = icmp eq i32 %25, 0
  br i1 %.not27, label %32, label %26

26:                                               ; preds = %20
  %27 = load ptr, ptr %10, align 8, !tbaa !27
  %28 = load ptr, ptr %27, align 8, !tbaa !137
  %29 = getelementptr inbounds nuw i8, ptr %28, i64 72
  %30 = load ptr, ptr %29, align 8, !tbaa !138
  %.not28 = icmp eq ptr %30, null
  br i1 %.not28, label %32, label %31

31:                                               ; preds = %26
  tail call void %30(ptr noundef nonnull %27, ptr noundef nonnull %9, ptr noundef nonnull %1) #17
  br label %32

32:                                               ; preds = %26, %31, %20
  %33 = load ptr, ptr %1, align 8, !tbaa !37
  %34 = getelementptr inbounds nuw i8, ptr %33, i64 28
  %35 = load i32, ptr %34, align 4, !tbaa !120
  %36 = icmp slt i32 %35, 3
  br i1 %36, label %.lr.ph.preheader, label %.loopexit

.lr.ph.preheader:                                 ; preds = %32
  %37 = sub i32 3, %35
  %smax = tail call i32 @llvm.smax.i32(i32 %37, i32 1)
  br label %.lr.ph

.lr.ph:                                           ; preds = %.lr.ph.preheader, %.lr.ph
  %.029 = phi i32 [ %39, %.lr.ph ], [ 0, %.lr.ph.preheader ]
  %38 = tail call i32 @add_next_index_null(ptr noundef nonnull %1) #17
  %39 = add nuw nsw i32 %.029, 1
  %exitcond.not = icmp eq i32 %39, %smax
  br i1 %exitcond.not, label %.loopexit, label %.lr.ph

.loopexit:                                        ; preds = %.lr.ph, %12, %32, %5
  ret void
}